; Function Attrs: nofree norecurse nosync nounwind memory(argmem: readwrite) uwtable
define internal void @put_h264_chroma_mc1_16_c(ptr noundef writeonly captures(none) %0, ptr noundef readonly captures(none) %1, i64 noundef %2, i32 noundef %3, i32 noundef %4, i32 noundef %5) #1 {
  %7 = sub nsw i32 8, %4
  %8 = sub nsw i32 8, %5
  %9 = mul nsw i32 %8, %7
  %10 = mul nsw i32 %8, %4
  %11 = mul nsw i32 %7, %5
  %12 = mul nsw i32 %5, %4
  %13 = ashr i64 %2, 1
  %.not = icmp eq i32 %12, 0
  br i1 %.not, label %38, label %.preheader69

.preheader69:                                     ; preds = %6
  %14 = icmp sgt i32 %3, 0
  br i1 %14, label %.lr.ph, label %.loopexit

.lr.ph:                                           ; preds = %.preheader69, %.lr.ph
  %.073 = phi ptr [ %36, %.lr.ph ], [ %0, %.preheader69 ]
  %.05872 = phi i32 [ %37, %.lr.ph ], [ 0, %.preheader69 ]
  %.06171 = phi ptr [ %22, %.lr.ph ], [ %1, %.preheader69 ]
  %15 = load i16, ptr %.06171, align 2, !tbaa !8
  %16 = zext i16 %15 to i32
  %17 = mul nsw i32 %9, %16
  %18 = getelementptr inbounds nuw i8, ptr %.06171, i64 2
  %19 = load i16, ptr %18, align 2, !tbaa !8
  %20 = zext i16 %19 to i32
  %21 = mul nsw i32 %10, %20
  %22 = getelementptr inbounds i16, ptr %.06171, i64 %13
  %23 = load i16, ptr %22, align 2, !tbaa !8
  %24 = zext i16 %23 to i32
  %25 = mul nsw i32 %11, %24
  %26 = getelementptr i8, ptr %22, i64 2
  %27 = load i16, ptr %26, align 2, !tbaa !8
  %28 = zext i16 %27 to i32
  %29 = mul nsw i32 %12, %28
  %30 = add i32 %17, 32
  %31 = add i32 %30, %21
  %32 = add i32 %31, %25
  %33 = add i32 %32, %29
  %34 = lshr i32 %33, 6
  %35 = trunc i32 %34 to i16
  store i16 %35, ptr %.073, align 2, !tbaa !8
  %36 = getelementptr inbounds i16, ptr %.073, i64 %13
  %37 = add nuw nsw i32 %.05872, 1
  %exitcond.not = icmp eq i32 %37, %3
  br i1 %exitcond.not, label %.loopexit, label %.lr.ph, !llvm.loop !20

38:                                               ; preds = %6
  %39 = add nsw i32 %10, %11
  %.not66 = icmp eq i32 %39, 0
  %40 = icmp sgt i32 %3, 0
  br i1 %.not66, label %.preheader, label %41

.preheader:                                       ; preds = %38
  br i1 %40, label %.lr.ph81, label %.loopexit

41:                                               ; preds = %38
  br i1 %40, label %.lr.ph77, label %.loopexit

.lr.ph77:                                         ; preds = %41
  %.not67 = icmp eq i32 %11, 0
  %42 = shl i64 %13, 32
  %43 = ashr exact i64 %42, 32
  %44 = select i1 %.not67, i64 1, i64 %43
  br label %45

45:                                               ; preds = %.lr.ph77, %45
  %.176 = phi ptr [ %0, %.lr.ph77 ], [ %57, %45 ]
  %.15975 = phi i32 [ 0, %.lr.ph77 ], [ %59, %45 ]
  %.16274 = phi ptr [ %1, %.lr.ph77 ], [ %58, %45 ]
  %46 = load i16, ptr %.16274, align 2, !tbaa !8
  %47 = zext i16 %46 to i32
  %48 = mul nsw i32 %9, %47
  %49 = getelementptr inbounds i16, ptr %.16274, i64 %44
  %50 = load i16, ptr %49, align 2, !tbaa !8
  %51 = zext i16 %50 to i32
  %52 = mul nsw i32 %39, %51
  %53 = add i32 %48, 32
  %54 = add i32 %53, %52
  %55 = lshr i32 %54, 6
  %56 = trunc i32 %55 to i16
  store i16 %56, ptr %.176, align 2, !tbaa !8
  %57 = getelementptr inbounds i16, ptr %.176, i64 %13
  %58 = getelementptr inbounds i16, ptr %.16274, i64 %13
  %59 = add nuw nsw i32 %.15975, 1
  %exitcond84.not = icmp eq i32 %59, %3
  br i1 %exitcond84.not, label %.loopexit, label %45, !llvm.loop !21

.lr.ph81:                                         ; preds = %.preheader, %.lr.ph81
  %.280 = phi ptr [ %66, %.lr.ph81 ], [ %0, %.preheader ]
  %.26079 = phi i32 [ %68, %.lr.ph81 ], [ 0, %.preheader ]
  %.26378 = phi ptr [ %67, %.lr.ph81 ], [ %1, %.preheader ]
  %60 = load i16, ptr %.26378, align 2, !tbaa !8
  %61 = zext i16 %60 to i32
  %62 = mul nsw i32 %9, %61
  %63 = add nsw i32 %62, 32
  %64 = lshr i32 %63, 6
  %65 = trunc i32 %64 to i16
  store i16 %65, ptr %.280, align 2, !tbaa !8
  %66 = getelementptr inbounds i16, ptr %.280, i64 %13
  %67 = getelementptr inbounds i16, ptr %.26378, i64 %13
  %68 = add nuw nsw i32 %.26079, 1
  %exitcond85.not = icmp eq i32 %68, %3
  br i1 %exitcond85.not, label %.loopexit, label %.lr.ph81, !llvm.loop !22

.loopexit:                                        ; preds = %.lr.ph, %45, %.lr.ph81, %.preheader69, %41, %.preheader
  ret void
}